target datalayout = "e-m:e-p270:32:32-p271:32:32-p272:64:64-i64:64-i128:128-f80:128-n8:16:32:64-S128"
target triple = "x86_64-unknown-linux-gnu"

%"struct.smt::theory_special_relations::relation" = type { ptr, %class.obj_ref, i32, ptr, %class.ptr_vector, i32, %class.svector, %"struct.smt::theory_special_relations::graph", %class.union_find_default_ctx, %class.union_find, %class.svector.16 }
%class.obj_ref = type { ptr, ptr }
%class.ptr_vector = type { %class.vector }
%class.vector = type { ptr }
%class.svector = type { %class.vector.0 }
%class.vector.0 = type { ptr }
%"struct.smt::theory_special_relations::graph" = type { %class.dl_graph }
%class.dl_graph = type { %"struct.dl_graph<smt::theory_special_relations::int_ext>::stats", %class.vector.1, %class.vector.2, %class.vector.3, %class.vector.4, %class.vector.4, %class.svector.5, %class.vector.1, %class.svector.7, %class.svector.9, %class.svector.9, %class.heap, i32, i32, %class.svector.9, %class.svector.7, %class.svector.9, %class.svector.9, %class.svector.9, i32, i32, %class.svector.11, %class.svector.9, i32, i32, %class.svector.9, %class.svector.9, %class.svector.9, %class.svector.9, %"struct.dl_graph<smt::theory_special_relations::int_ext>::dfs_state", %"struct.dl_graph<smt::theory_special_relations::int_ext>::dfs_state" }
%"struct.dl_graph<smt::theory_special_relations::int_ext>::stats" = type { i32, i32, i32, i32, i32 }
%class.vector.2 = type { ptr }
%class.vector.3 = type { ptr }
%class.vector.4 = type { ptr }
%class.svector.5 = type { %class.vector.6 }
%class.vector.6 = type { ptr }
%class.vector.1 = type { ptr }
%class.heap = type { %class.dl_var_lt, %class.svector.9, %class.svector.9 }
%class.dl_var_lt = type { ptr }
%class.svector.7 = type { %class.vector.8 }
%class.vector.8 = type { ptr }
%class.svector.11 = type { %class.vector.12 }
%class.vector.12 = type { ptr }
%class.svector.9 = type { %class.vector.10 }
%class.vector.10 = type { ptr }
%"struct.dl_graph<smt::theory_special_relations::int_ext>::dfs_state" = type <{ %class.vector.1, %class.svector.9, %class.svector.9, %class.heap.13, i32, [4 x i8] }>
%class.heap.13 = type { %"class.dl_graph<smt::theory_special_relations::int_ext>::dfs_state::hp_lt", %class.svector.9, %class.svector.9 }
%"class.dl_graph<smt::theory_special_relations::int_ext>::dfs_state::hp_lt" = type { ptr, ptr }
%class.union_find_default_ctx = type { %class.trail_stack }
%class.trail_stack = type { %class.ptr_vector.14, %class.svector.11, %class.region }
%class.ptr_vector.14 = type { %class.vector.15 }
%class.vector.15 = type { ptr }
%class.region = type { ptr, ptr, ptr, ptr, ptr }
%class.union_find = type { ptr, ptr, %class.svector.11, %class.svector.11, %class.svector.11, %"class.union_find<>::mk_var_trail" }
%"class.union_find<>::mk_var_trail" = type { %class.trail, ptr }
%class.trail = type { ptr }
%class.svector.16 = type { %class.vector.17 }
%class.vector.17 = type { ptr }
%"class.smt::theory_special_relations::atom" = type <{ i32, [4 x i8], ptr, i8, [3 x i8], i32, i32, i32, i32, [4 x i8] }>

; Function Attrs: mustprogress nounwind uwtable
define linkonce_odr hidden void @_ZN6vectorIN3sat7literalELb0EjE5resetEv(ptr noundef nonnull align 8 dereferenceable(8) %this) #4 comdat align 2 {
entry:
  %this.addr = alloca ptr, align 8
  store ptr %this, ptr %this.addr, align 8
  %this1 = load ptr, ptr %this.addr, align 8
  %m_data = getelementptr inbounds %class.vector.17, ptr %this1, i32 0, i32 0
  %0 = load ptr, ptr %m_data, align 8
  %tobool = icmp ne ptr %0, null
  br i1 %tobool, label %if.then, label %if.end

if.then:                                          ; preds = %entry
  %m_data2 = getelementptr inbounds %class.vector.17, ptr %this1, i32 0, i32 0
  %1 = load ptr, ptr %m_data2, align 8
  %arrayidx = getelementptr inbounds i32, ptr %1, i64 -1
  store i32 0, ptr %arrayidx, align 4
  br label %if.end

if.end:                                           ; preds = %if.then, %entry
  ret void
}

; Function Attrs: mustprogress uwtable
define hidden void @_ZN3smt24theory_special_relations22set_neg_cycle_conflictERNS0_8relationE(ptr noundef nonnull align 8 dereferenceable(145) %this, ptr noundef nonnull align 8 dereferenceable(552) %r) #5 align 2 {
entry:
  %this.addr = alloca ptr, align 8
  %r.addr = alloca ptr, align 8
  store ptr %this, ptr %this.addr, align 8
  store ptr %r, ptr %r.addr, align 8
  %this1 = load ptr, ptr %this.addr, align 8
  %0 = load ptr, ptr %r.addr, align 8
  %m_explanation = getelementptr inbounds %"struct.smt::theory_special_relations::relation", ptr %0, i32 0, i32 10
  call void @_ZN6vectorIN3sat7literalELb0EjE5resetEv(ptr noundef nonnull align 8 dereferenceable(8) %m_explanation)
  %1 = load ptr, ptr %r.addr, align 8
  %m_graph = getelementptr inbounds %"struct.smt::theory_special_relations::relation", ptr %1, i32 0, i32 7
  %2 = load ptr, ptr %r.addr, align 8
  call void @_ZN8dl_graphIN3smt24theory_special_relations7int_extEE19traverse_neg_cycle2INS1_8relationEEEvbRT_(ptr noundef nonnull align 8 dereferenceable(368) %m_graph, i1 noundef zeroext false, ptr noundef nonnull align 8 dereferenceable(552) %2)
  %3 = load ptr, ptr %r.addr, align 8
  call void @_ZN3smt24theory_special_relations12set_conflictERNS0_8relationE(ptr noundef nonnull align 8 dereferenceable(145) %this1, ptr noundef nonnull align 8 dereferenceable(552) %3)
  ret void
}

; Function Attrs: mustprogress nounwind uwtable
define linkonce_odr hidden noundef nonnull align 8 dereferenceable(552) ptr @_ZNK3smt24theory_special_relations4atom12get_relationEv(ptr noundef nonnull align 8 dereferenceable(36) %this) #4 comdat align 2 {
entry:
  %this.addr = alloca ptr, align 8
  store ptr %this, ptr %this.addr, align 8
  %this1 = load ptr, ptr %this.addr, align 8
  %m_relation = getelementptr inbounds %"class.smt::theory_special_relations::atom", ptr %this1, i32 0, i32 2
  %0 = load ptr, ptr %m_relation, align 8
  ret ptr %0
}

; Function Attrs: mustprogress uwtable
define hidden noundef i32 @_ZN3smt24theory_special_relations6enableERNS0_4atomE(ptr noundef nonnull align 8 dereferenceable(145) %this, ptr noundef nonnull align 8 dereferenceable(36) %a) #5 align 2 {
entry:
  %retval = alloca i32, align 4
  %this.addr = alloca ptr, align 8
  %a.addr = alloca ptr, align 8
  %r = alloca ptr, align 8
  store ptr %this, ptr %this.addr, align 8
  store ptr %a, ptr %a.addr, align 8
  %this1 = load ptr, ptr %this.addr, align 8
  %0 = load ptr, ptr %a.addr, align 8
  %call = call noundef zeroext i1 @_ZN3smt24theory_special_relations4atom6enableEv(ptr noundef nonnull align 8 dereferenceable(36) %0)
  br i1 %call, label %if.else, label %if.then

if.then:                                          ; preds = %entry
  %1 = load ptr, ptr %a.addr, align 8
  %call2 = call noundef nonnull align 8 dereferenceable(552) ptr @_ZNK3smt24theory_special_relations4atom12get_relationEv(ptr noundef nonnull align 8 dereferenceable(36) %1)
  store ptr %call2, ptr %r, align 8
  %2 = load ptr, ptr %r, align 8
  call void @_ZN3smt24theory_special_relations22set_neg_cycle_conflictERNS0_8relationE(ptr noundef nonnull align 8 dereferenceable(145) %this1, ptr noundef nonnull align 8 dereferenceable(552) %2)
  store i32 -1, ptr %retval, align 4
  br label %return

if.else:                                          ; preds = %entry
  store i32 1, ptr %retval, align 4
  br label %return

return:                                           ; preds = %if.else, %if.then
  %3 = load i32, ptr %retval, align 4
  ret i32 %3
}