; Function Attrs: mustprogress uwtable
define hidden noundef i32 @_ZN3smt24theory_special_relations6enableERNS0_4atomE(ptr nocapture noundef nonnull readonly align 8 dereferenceable(145) %this, ptr noundef nonnull align 8 dereferenceable(36) %a) local_unnamed_addr #3 align 2 {
entry:
  %call = tail call noundef zeroext i1 @_ZN3smt24theory_special_relations4atom6enableEv(ptr noundef nonnull align 8 dereferenceable(36) %a)
  br i1 %call, label %return, label %if.then

if.then:                                          ; preds = %entry
  %m_relation.i = getelementptr inbounds i8, ptr %a, i64 8
  %0 = load ptr, ptr %m_relation.i, align 8
  %m_explanation.i = getelementptr inbounds i8, ptr %0, i64 544
  %1 = load ptr, ptr %m_explanation.i, align 8
  %tobool.not.i.i = icmp eq ptr %1, null
  br i1 %tobool.not.i.i, label %_ZN3smt24theory_special_relations22set_neg_cycle_conflictERNS0_8relationE.exit, label %if.then.i.i

if.then.i.i:                                      ; preds = %if.then
  %arrayidx.i.i = getelementptr inbounds i8, ptr %1, i64 -4
  store i32 0, ptr %arrayidx.i.i, align 4
  br label %_ZN3smt24theory_special_relations22set_neg_cycle_conflictERNS0_8relationE.exit

_ZN3smt24theory_special_relations22set_neg_cycle_conflictERNS0_8relationE.exit: ; preds = %if.then, %if.then.i.i
  %m_graph.i = getelementptr inbounds i8, ptr %0, i64 64
  tail call void @_ZN8dl_graphIN3smt24theory_special_relations7int_extEE19traverse_neg_cycle2INS1_8relationEEEvbRT_(ptr noundef nonnull align 8 dereferenceable(368) %m_graph.i, i1 noundef zeroext false, ptr noundef nonnull align 8 dereferenceable(552) %0)
  tail call void @_ZN3smt24theory_special_relations12set_conflictERNS0_8relationE(ptr noundef nonnull align 8 dereferenceable(145) %this, ptr noundef nonnull align 8 dereferenceable(552) %0)
  br label %return

return:                                           ; preds = %entry, %_ZN3smt24theory_special_relations22set_neg_cycle_conflictERNS0_8relationE.exit
  %retval.0 = phi i32 [ -1, %_ZN3smt24theory_special_relations22set_neg_cycle_conflictERNS0_8relationE.exit ], [ 1, %entry ]
  ret i32 %retval.0
}